; Function Attrs: nounwind sspstrong uwtable
define internal range(i64 1, 0) i64 @bug_str_cstr_term(i64 noundef %0) #0 {
  %2 = alloca i64, align 8
  store i64 %0, ptr %2, align 8, !tbaa !6
  %3 = inttoptr i64 %0 to ptr
  %4 = getelementptr inbounds nuw i8, ptr %3, i64 16
  %5 = load i64, ptr %4, align 8, !tbaa !10
  %6 = call ptr @rb_string_value_cstr(ptr noundef nonnull %2) #9
  call void @rb_gc() #9
  %7 = load i64, ptr %2, align 8, !tbaa !6
  %8 = call ptr @rb_enc_get(i64 noundef %7) #9
  %9 = getelementptr inbounds i8, ptr %6, i64 %5
  %10 = getelementptr i8, ptr %8, i64 20
  %.val = load i32, ptr %10, align 4, !tbaa !13
  %11 = sext i32 %.val to i64
  %12 = getelementptr i8, ptr %9, i64 %11
  %13 = call i32 @rb_enc_codepoint_len(ptr noundef %9, ptr noundef %12, ptr noundef null, ptr noundef %8) #9
  %14 = sext i32 %13 to i64
  %15 = shl nsw i64 %14, 1
  %16 = or disjoint i64 %15, 1
  ret i64 %16
}